; Function Attrs: mustprogress nounwind uwtable
define dso_local { ptr, i32 } @_ZN4llvm3rdf13NodeAllocator3NewEv(ptr noundef nonnull align 8 dereferenceable(144) %0) local_unnamed_addr #0 align 2 {
  %2 = getelementptr inbounds nuw i8, ptr %0, i64 24
  %3 = load ptr, ptr %2, align 8
  %4 = getelementptr inbounds nuw i8, ptr %0, i64 32
  %5 = load ptr, ptr %4, align 8
  %6 = icmp eq ptr %3, %5
  br i1 %6, label %_ZN4llvm3rdf13NodeAllocator12needNewBlockEv.exit.thread, label %_ZN4llvm3rdf13NodeAllocator12needNewBlockEv.exit

_ZN4llvm3rdf13NodeAllocator12needNewBlockEv.exit: ; preds = %1
  %7 = getelementptr inbounds i8, ptr %5, i64 -8
  %8 = load ptr, ptr %7, align 8
  %9 = getelementptr inbounds nuw i8, ptr %0, i64 16
  %10 = load ptr, ptr %9, align 8
  %11 = ptrtoint ptr %10 to i64
  %12 = ptrtoint ptr %8 to i64
  %13 = sub i64 %11, %12
  %14 = sdiv i64 %13, 32
  %15 = trunc i64 %14 to i32
  %16 = load i32, ptr %0, align 8
  %.not = icmp ugt i32 %16, %15
  br i1 %.not, label %17, label %_ZN4llvm3rdf13NodeAllocator12needNewBlockEv.exit.thread

_ZN4llvm3rdf13NodeAllocator12needNewBlockEv.exit.thread: ; preds = %1, %_ZN4llvm3rdf13NodeAllocator12needNewBlockEv.exit
  tail call void @_ZN4llvm3rdf13NodeAllocator13startNewBlockEv(ptr noundef nonnull align 8 dereferenceable(144) %0)
  %.pre = load ptr, ptr %4, align 8
  %.pre4 = load ptr, ptr %2, align 8
  %.phi.trans.insert = getelementptr inbounds nuw i8, ptr %0, i64 16
  %.pre5 = load ptr, ptr %.phi.trans.insert, align 8
  %.pre6 = ptrtoint ptr %.pre5 to i64
  br label %17

17:                                               ; preds = %_ZN4llvm3rdf13NodeAllocator12needNewBlockEv.exit.thread, %_ZN4llvm3rdf13NodeAllocator12needNewBlockEv.exit
  %.pre-phi = phi i64 [ %.pre6, %_ZN4llvm3rdf13NodeAllocator12needNewBlockEv.exit.thread ], [ %11, %_ZN4llvm3rdf13NodeAllocator12needNewBlockEv.exit ]
  %18 = phi ptr [ %.pre5, %_ZN4llvm3rdf13NodeAllocator12needNewBlockEv.exit.thread ], [ %10, %_ZN4llvm3rdf13NodeAllocator12needNewBlockEv.exit ]
  %19 = phi ptr [ %.pre4, %_ZN4llvm3rdf13NodeAllocator12needNewBlockEv.exit.thread ], [ %3, %_ZN4llvm3rdf13NodeAllocator12needNewBlockEv.exit ]
  %20 = phi ptr [ %.pre, %_ZN4llvm3rdf13NodeAllocator12needNewBlockEv.exit.thread ], [ %5, %_ZN4llvm3rdf13NodeAllocator12needNewBlockEv.exit ]
  %21 = ptrtoint ptr %20 to i64
  %22 = ptrtoint ptr %19 to i64
  %23 = sub i64 %21, %22
  %24 = lshr exact i64 %23, 3
  %25 = trunc i64 %24 to i32
  %26 = add i32 %25, -1
  %27 = getelementptr inbounds nuw i8, ptr %0, i64 16
  %28 = zext i32 %26 to i64
  %29 = getelementptr inbounds nuw ptr, ptr %19, i64 %28
  %30 = load ptr, ptr %29, align 8
  %31 = ptrtoint ptr %30 to i64
  %32 = sub i64 %.pre-phi, %31
  %33 = sdiv i64 %32, 32
  %34 = trunc i64 %33 to i32
  %35 = getelementptr inbounds nuw i8, ptr %0, i64 4
  %36 = load i32, ptr %35, align 4
  %37 = shl i32 %26, %36
  %38 = or i32 %37, %34
  %39 = add i32 %38, 1
  %40 = getelementptr inbounds nuw i8, ptr %18, i64 32
  store ptr %40, ptr %27, align 8
  %.fca.0.insert = insertvalue { ptr, i32 } poison, ptr %18, 0
  %.fca.1.insert = insertvalue { ptr, i32 } %.fca.0.insert, i32 %39, 1
  ret { ptr, i32 } %.fca.1.insert
}